; Function Attrs: mustprogress uwtable
define void @_ZN8MdiChildC2Ev(ptr noundef nonnull align 8 dereferenceable(153) %0) unnamed_addr #0 align 2 personality ptr @__gxx_personality_v0 {
  tail call void @_ZN9QTextEditC2EP7QWidget(ptr noundef nonnull align 8 dereferenceable(40) %0, ptr noundef null)
  store ptr getelementptr inbounds ({ [64 x ptr], [10 x ptr] }, ptr @_ZTV8MdiChild, i64 0, i32 0, i64 2), ptr %0, align 8
  %2 = getelementptr inbounds i8, ptr %0, i64 16
  store ptr getelementptr inbounds ({ [64 x ptr], [10 x ptr] }, ptr @_ZTV8MdiChild, i64 0, i32 1, i64 2), ptr %2, align 8
  %3 = getelementptr inbounds i8, ptr %0, i64 48
  tail call void @llvm.memset.p0.i64(ptr noundef nonnull align 8 dereferenceable(24) %3, i8 0, i64 24, i1 false)
  %4 = getelementptr inbounds i8, ptr %0, i64 80
  %5 = getelementptr inbounds i8, ptr %0, i64 104
  %6 = getelementptr inbounds i8, ptr %0, i64 128
  tail call void @llvm.memset.p0.i64(ptr noundef nonnull align 8 dereferenceable(24) %6, i8 0, i64 24, i1 false)
  tail call void @llvm.memset.p0.i64(ptr noundef nonnull align 8 dereferenceable(32) %4, i8 0, i64 32, i1 false)
  invoke void @_ZN7QWidget12setAttributeEN2Qt15WidgetAttributeEb(ptr noundef nonnull align 8 dereferenceable(40) %0, i32 noundef 55, i1 noundef zeroext true)
          to label %7 unwind label %14

7:                                                ; preds = %1
  %8 = getelementptr inbounds i8, ptr %0, i64 152
  store i8 1, ptr %8, align 8
  %9 = getelementptr inbounds i8, ptr %0, i64 40
  store i32 0, ptr %9, align 8
  %10 = getelementptr inbounds i8, ptr %0, i64 44
  store i32 0, ptr %10, align 4
  %11 = getelementptr inbounds i8, ptr %0, i64 72
  store i8 1, ptr %11, align 8
  %12 = getelementptr inbounds i8, ptr %0, i64 73
  store i8 0, ptr %12, align 1
  %13 = getelementptr inbounds i8, ptr %0, i64 120
  store i8 0, ptr %13, align 8
  ret void

14:                                               ; preds = %1
  %15 = landingpad { ptr, i32 }
          cleanup
  tail call void @_ZN7QStringD2Ev(ptr noundef nonnull align 8 dereferenceable(24) %6) #10
  %16 = load ptr, ptr %5, align 8
  %.not.i = icmp eq ptr %16, null
  br i1 %.not.i, label %_ZNSt10unique_ptrI11ImageViewerSt14default_deleteIS0_EED2Ev.exit, label %_ZNKSt14default_deleteI11ImageViewerEclEPS0_.exit.i

_ZNKSt14default_deleteI11ImageViewerEclEPS0_.exit.i: ; preds = %14
  %17 = load ptr, ptr %16, align 8
  %18 = getelementptr inbounds i8, ptr %17, i64 32
  %19 = load ptr, ptr %18, align 8
  tail call void %19(ptr noundef nonnull align 8 dereferenceable(160) %16) #10
  br label %_ZNSt10unique_ptrI11ImageViewerSt14default_deleteIS0_EED2Ev.exit

_ZNSt10unique_ptrI11ImageViewerSt14default_deleteIS0_EED2Ev.exit: ; preds = %14, %_ZNKSt14default_deleteI11ImageViewerEclEPS0_.exit.i
  store ptr null, ptr %5, align 8
  tail call void @_ZN7QStringD2Ev(ptr noundef nonnull align 8 dereferenceable(24) %4) #10
  tail call void @_ZN7QStringD2Ev(ptr noundef nonnull align 8 dereferenceable(24) %3) #10
  tail call void @_ZN9QTextEditD2Ev(ptr noundef nonnull align 8 dereferenceable(40) %0) #10
  resume { ptr, i32 } %15
}